target datalayout = "e-m:e-p270:32:32-p271:32:32-p272:64:64-i64:64-i128:128-f80:128-n8:16:32:64-S128"
target triple = "x86_64-pc-linux-gnu"

%struct.Wln_Ntk_t_ = type { ptr, ptr, i32, %struct.Vec_Int_t_, %struct.Vec_Int_t_, %struct.Vec_Int_t_, %struct.Vec_Int_t_, ptr, %struct.Vec_Int_t_, ptr, %struct.Vec_Int_t_, %struct.Vec_Int_t_, ptr, %struct.Vec_Str_t_, i32, %struct.Vec_Int_t_, %struct.Vec_Int_t_, %struct.Vec_Int_t_, %struct.Vec_Int_t_, %struct.Vec_Int_t_, %struct.Vec_Int_t_, %struct.Vec_Int_t_, %struct.Vec_Int_t_, ptr, [99 x i32], [99 x i32] }
%struct.Vec_Str_t_ = type { i32, i32, ptr }
%struct.Vec_Int_t_ = type { i32, i32, ptr }
%struct.Wln_Vec_t_ = type { i32, i32, %union.anon }
%union.anon = type { [1 x ptr] }

@.str.2 = private unnamed_addr constant [28 x i8] c"Node IDs and their fanins:\0A\00", align 1
@.str.3 = private unnamed_addr constant [7 x i8] c"%5d = \00", align 1
@.str.4 = private unnamed_addr constant [5 x i8] c"%5d \00", align 1
@.str.5 = private unnamed_addr constant [7 x i8] c"      \00", align 1
@.str.6 = private unnamed_addr constant [16 x i8] c"    Name Id %d \00", align 1
@.str.7 = private unnamed_addr constant [7 x i8] c"  pi  \00", align 1
@.str.8 = private unnamed_addr constant [7 x i8] c"  po  \00", align 1
@.str.9 = private unnamed_addr constant [2 x i8] c"\0A\00", align 1

; Function Attrs: inlinehint nounwind uwtable
define internal i32 @Wln_NtkCoNum(ptr noundef %0) #2 {
  %2 = alloca ptr, align 8
  store ptr %0, ptr %2, align 8, !tbaa !3
  %3 = load ptr, ptr %2, align 8, !tbaa !3
  %4 = getelementptr inbounds nuw %struct.Wln_Ntk_t_, ptr %3, i32 0, i32 4
  %5 = call i32 @Vec_IntSize(ptr noundef %4)
  ret i32 %5
}

; Function Attrs: inlinehint nounwind uwtable
define internal i32 @Wln_NtkFfNum(ptr noundef %0) #2 {
  %2 = alloca ptr, align 8
  store ptr %0, ptr %2, align 8, !tbaa !3
  %3 = load ptr, ptr %2, align 8, !tbaa !3
  %4 = getelementptr inbounds nuw %struct.Wln_Ntk_t_, ptr %3, i32 0, i32 5
  %5 = call i32 @Vec_IntSize(ptr noundef %4)
  ret i32 %5
}

; Function Attrs: inlinehint nounwind uwtable
define internal i32 @Wln_NtkCiNum(ptr noundef %0) #2 {
  %2 = alloca ptr, align 8
  store ptr %0, ptr %2, align 8, !tbaa !3
  %3 = load ptr, ptr %2, align 8, !tbaa !3
  %4 = getelementptr inbounds nuw %struct.Wln_Ntk_t_, ptr %3, i32 0, i32 3
  %5 = call i32 @Vec_IntSize(ptr noundef %4)
  ret i32 %5
}

; Function Attrs: inlinehint nounwind uwtable
define internal i32 @Wln_ObjFanin1(ptr noundef %0, i32 noundef %1) #2 {
  %3 = alloca ptr, align 8
  %4 = alloca i32, align 4
  store ptr %0, ptr %3, align 8, !tbaa !3
  store i32 %1, ptr %4, align 4, !tbaa !9
  %5 = load ptr, ptr %3, align 8, !tbaa !3
  %6 = load i32, ptr %4, align 4, !tbaa !9
  %7 = call i32 @Wln_ObjFanin(ptr noundef %5, i32 noundef %6, i32 noundef 1)
  ret i32 %7
}

; Function Attrs: inlinehint nounwind uwtable
define internal i32 @Wln_ObjType(ptr noundef %0, i32 noundef %1) #2 {
  %3 = alloca ptr, align 8
  %4 = alloca i32, align 4
  store ptr %0, ptr %3, align 8, !tbaa !3
  store i32 %1, ptr %4, align 4, !tbaa !9
  %5 = load ptr, ptr %3, align 8, !tbaa !3
  %6 = getelementptr inbounds nuw %struct.Wln_Ntk_t_, ptr %5, i32 0, i32 6
  %7 = load i32, ptr %4, align 4, !tbaa !9
  %8 = call i32 @Vec_IntEntry(ptr noundef %6, i32 noundef %7)
  ret i32 %8
}

; Function Attrs: inlinehint nounwind uwtable
define internal i32 @Wln_NtkPoNum(ptr noundef %0) #2 {
  %2 = alloca ptr, align 8
  store ptr %0, ptr %2, align 8, !tbaa !3
  %3 = load ptr, ptr %2, align 8, !tbaa !3
  %4 = call i32 @Wln_NtkCoNum(ptr noundef %3)
  %5 = load ptr, ptr %2, align 8, !tbaa !3
  %6 = call i32 @Wln_NtkFfNum(ptr noundef %5)
  %7 = sub nsw i32 %4, %6
  ret i32 %7
}

; Function Attrs: inlinehint nounwind uwtable
define internal i32 @Wln_ObjIsCo(ptr noundef %0, i32 noundef %1) #2 {
  %3 = alloca ptr, align 8
  %4 = alloca i32, align 4
  store ptr %0, ptr %3, align 8, !tbaa !3
  store i32 %1, ptr %4, align 4, !tbaa !9
  %5 = load ptr, ptr %3, align 8, !tbaa !3
  %6 = load i32, ptr %4, align 4, !tbaa !9
  %7 = call i32 @Wln_ObjType(ptr noundef %5, i32 noundef %6)
  %8 = icmp eq i32 %7, 4
  %9 = zext i1 %8 to i32
  ret i32 %9
}

; Function Attrs: inlinehint nounwind uwtable
define internal i32 @Wln_NtkPiNum(ptr noundef %0) #2 {
  %2 = alloca ptr, align 8
  store ptr %0, ptr %2, align 8, !tbaa !3
  %3 = load ptr, ptr %2, align 8, !tbaa !3
  %4 = call i32 @Wln_NtkCiNum(ptr noundef %3)
  %5 = load ptr, ptr %2, align 8, !tbaa !3
  %6 = call i32 @Wln_NtkFfNum(ptr noundef %5)
  %7 = sub nsw i32 %4, %6
  ret i32 %7
}

; Function Attrs: inlinehint nounwind uwtable
define internal i32 @Wln_ObjCioId(ptr noundef %0, i32 noundef %1) #2 {
  %3 = alloca ptr, align 8
  %4 = alloca i32, align 4
  store ptr %0, ptr %3, align 8, !tbaa !3
  store i32 %1, ptr %4, align 4, !tbaa !9
  %5 = load ptr, ptr %3, align 8, !tbaa !3
  %6 = load i32, ptr %4, align 4, !tbaa !9
  %7 = call i32 @Wln_ObjFanin1(ptr noundef %5, i32 noundef %6)
  ret i32 %7
}

; Function Attrs: inlinehint nounwind uwtable
define internal i32 @Wln_ObjIsCi(ptr noundef %0, i32 noundef %1) #2 {
  %3 = alloca ptr, align 8
  %4 = alloca i32, align 4
  store ptr %0, ptr %3, align 8, !tbaa !3
  store i32 %1, ptr %4, align 4, !tbaa !9
  %5 = load ptr, ptr %3, align 8, !tbaa !3
  %6 = load i32, ptr %4, align 4, !tbaa !9
  %7 = call i32 @Wln_ObjType(ptr noundef %5, i32 noundef %6)
  %8 = icmp eq i32 %7, 3
  %9 = zext i1 %8 to i32
  ret i32 %9
}

; Function Attrs: inlinehint nounwind uwtable
define internal i32 @Vec_IntEntry(ptr noundef %0, i32 noundef %1) #2 {
  %3 = alloca ptr, align 8
  %4 = alloca i32, align 4
  store ptr %0, ptr %3, align 8, !tbaa !13
  store i32 %1, ptr %4, align 4, !tbaa !9
  %5 = load ptr, ptr %3, align 8, !tbaa !13
  %6 = getelementptr inbounds nuw %struct.Vec_Int_t_, ptr %5, i32 0, i32 2
  %7 = load ptr, ptr %6, align 8, !tbaa !39
  %8 = load i32, ptr %4, align 4, !tbaa !9
  %9 = sext i32 %8 to i64
  %10 = getelementptr inbounds i32, ptr %7, i64 %9
  %11 = load i32, ptr %10, align 4, !tbaa !9
  ret i32 %11
}

; Function Attrs: inlinehint nounwind uwtable
define internal i32 @Vec_IntSize(ptr noundef %0) #2 {
  %2 = alloca ptr, align 8
  store ptr %0, ptr %2, align 8, !tbaa !13
  %3 = load ptr, ptr %2, align 8, !tbaa !13
  %4 = getelementptr inbounds nuw %struct.Vec_Int_t_, ptr %3, i32 0, i32 1
  %5 = load i32, ptr %4, align 4, !tbaa !37
  ret i32 %5
}

; Function Attrs: inlinehint nounwind uwtable
define internal i32 @Wln_ObjIsPo(ptr noundef %0, i32 noundef %1) #2 {
  %3 = alloca ptr, align 8
  %4 = alloca i32, align 4
  store ptr %0, ptr %3, align 8, !tbaa !3
  store i32 %1, ptr %4, align 4, !tbaa !9
  %5 = load ptr, ptr %3, align 8, !tbaa !3
  %6 = load i32, ptr %4, align 4, !tbaa !9
  %7 = call i32 @Wln_ObjIsCo(ptr noundef %5, i32 noundef %6)
  %8 = icmp ne i32 %7, 0
  br i1 %8, label %9, label %16

9:                                                ; preds = %2
  %10 = load ptr, ptr %3, align 8, !tbaa !3
  %11 = load i32, ptr %4, align 4, !tbaa !9
  %12 = call i32 @Wln_ObjCioId(ptr noundef %10, i32 noundef %11)
  %13 = load ptr, ptr %3, align 8, !tbaa !3
  %14 = call i32 @Wln_NtkPoNum(ptr noundef %13)
  %15 = icmp slt i32 %12, %14
  br label %16

16:                                               ; preds = %9, %2
  %17 = phi i1 [ false, %2 ], [ %15, %9 ]
  %18 = zext i1 %17 to i32
  ret i32 %18
}

; Function Attrs: inlinehint nounwind uwtable
define internal i32 @Wln_ObjIsPi(ptr noundef %0, i32 noundef %1) #2 {
  %3 = alloca ptr, align 8
  %4 = alloca i32, align 4
  store ptr %0, ptr %3, align 8, !tbaa !3
  store i32 %1, ptr %4, align 4, !tbaa !9
  %5 = load ptr, ptr %3, align 8, !tbaa !3
  %6 = load i32, ptr %4, align 4, !tbaa !9
  %7 = call i32 @Wln_ObjIsCi(ptr noundef %5, i32 noundef %6)
  %8 = icmp ne i32 %7, 0
  br i1 %8, label %9, label %16

9:                                                ; preds = %2
  %10 = load ptr, ptr %3, align 8, !tbaa !3
  %11 = load i32, ptr %4, align 4, !tbaa !9
  %12 = call i32 @Wln_ObjCioId(ptr noundef %10, i32 noundef %11)
  %13 = load ptr, ptr %3, align 8, !tbaa !3
  %14 = call i32 @Wln_NtkPiNum(ptr noundef %13)
  %15 = icmp slt i32 %12, %14
  br label %16

16:                                               ; preds = %9, %2
  %17 = phi i1 [ false, %2 ], [ %15, %9 ]
  %18 = zext i1 %17 to i32
  ret i32 %18
}

; Function Attrs: inlinehint nounwind uwtable
define internal i32 @Wln_ObjNameId(ptr noundef %0, i32 noundef %1) #2 {
  %3 = alloca ptr, align 8
  %4 = alloca i32, align 4
  store ptr %0, ptr %3, align 8, !tbaa !3
  store i32 %1, ptr %4, align 4, !tbaa !9
  %5 = load ptr, ptr %3, align 8, !tbaa !3
  %6 = getelementptr inbounds nuw %struct.Wln_Ntk_t_, ptr %5, i32 0, i32 10
  %7 = load i32, ptr %4, align 4, !tbaa !9
  %8 = call i32 @Vec_IntEntry(ptr noundef %6, i32 noundef %7)
  ret i32 %8
}

; Function Attrs: inlinehint nounwind uwtable
define internal i32 @Wln_ObjFanin(ptr noundef %0, i32 noundef %1, i32 noundef %2) #2 {
  %4 = alloca ptr, align 8
  %5 = alloca i32, align 4
  %6 = alloca i32, align 4
  store ptr %0, ptr %4, align 8, !tbaa !3
  store i32 %1, ptr %5, align 4, !tbaa !9
  store i32 %2, ptr %6, align 4, !tbaa !9
  %7 = load ptr, ptr %4, align 8, !tbaa !3
  %8 = load i32, ptr %5, align 4, !tbaa !9
  %9 = call i32 @Wln_ObjFaninNum(ptr noundef %7, i32 noundef %8)
  %10 = icmp sgt i32 %9, 2
  br i1 %10, label %11, label %25

11:                                               ; preds = %3
  %12 = load ptr, ptr %4, align 8, !tbaa !3
  %13 = getelementptr inbounds nuw %struct.Wln_Ntk_t_, ptr %12, i32 0, i32 7
  %14 = load ptr, ptr %13, align 8, !tbaa !40
  %15 = load i32, ptr %5, align 4, !tbaa !9
  %16 = sext i32 %15 to i64
  %17 = getelementptr inbounds %struct.Wln_Vec_t_, ptr %14, i64 %16
  %18 = getelementptr inbounds nuw %struct.Wln_Vec_t_, ptr %17, i32 0, i32 2
  %19 = getelementptr inbounds [1 x ptr], ptr %18, i64 0, i64 0
  %20 = load ptr, ptr %19, align 8, !tbaa !43
  %21 = load i32, ptr %6, align 4, !tbaa !9
  %22 = sext i32 %21 to i64
  %23 = getelementptr inbounds i32, ptr %20, i64 %22
  %24 = load i32, ptr %23, align 4, !tbaa !9
  br label %37

25:                                               ; preds = %3
  %26 = load ptr, ptr %4, align 8, !tbaa !3
  %27 = getelementptr inbounds nuw %struct.Wln_Ntk_t_, ptr %26, i32 0, i32 7
  %28 = load ptr, ptr %27, align 8, !tbaa !40
  %29 = load i32, ptr %5, align 4, !tbaa !9
  %30 = sext i32 %29 to i64
  %31 = getelementptr inbounds %struct.Wln_Vec_t_, ptr %28, i64 %30
  %32 = getelementptr inbounds nuw %struct.Wln_Vec_t_, ptr %31, i32 0, i32 2
  %33 = load i32, ptr %6, align 4, !tbaa !9
  %34 = sext i32 %33 to i64
  %35 = getelementptr inbounds [2 x i32], ptr %32, i64 0, i64 %34
  %36 = load i32, ptr %35, align 4, !tbaa !43
  br label %37

37:                                               ; preds = %25, %11
  %38 = phi i32 [ %24, %11 ], [ %36, %25 ]
  ret i32 %38
}

; Function Attrs: inlinehint nounwind uwtable
define internal i32 @Wln_ObjFaninNum(ptr noundef %0, i32 noundef %1) #2 {
  %3 = alloca ptr, align 8
  %4 = alloca i32, align 4
  store ptr %0, ptr %3, align 8, !tbaa !3
  store i32 %1, ptr %4, align 4, !tbaa !9
  %5 = load ptr, ptr %3, align 8, !tbaa !3
  %6 = getelementptr inbounds nuw %struct.Wln_Ntk_t_, ptr %5, i32 0, i32 7
  %7 = load ptr, ptr %6, align 8, !tbaa !40
  %8 = load i32, ptr %4, align 4, !tbaa !9
  %9 = sext i32 %8 to i64
  %10 = getelementptr inbounds %struct.Wln_Vec_t_, ptr %7, i64 %9
  %11 = getelementptr inbounds nuw %struct.Wln_Vec_t_, ptr %10, i32 0, i32 1
  %12 = load i32, ptr %11, align 4, !tbaa !41
  ret i32 %12
}

; Function Attrs: inlinehint nounwind uwtable
define internal i32 @Wln_NtkObjNum(ptr noundef %0) #2 {
  %2 = alloca ptr, align 8
  store ptr %0, ptr %2, align 8, !tbaa !3
  %3 = load ptr, ptr %2, align 8, !tbaa !3
  %4 = getelementptr inbounds nuw %struct.Wln_Ntk_t_, ptr %3, i32 0, i32 6
  %5 = call i32 @Vec_IntSize(ptr noundef %4)
  ret i32 %5
}

; Function Attrs: nounwind uwtable
define void @Ndr_NtkPrintObjects(ptr noundef %0) #0 {
  %2 = alloca ptr, align 8
  %3 = alloca i32, align 4
  %4 = alloca i32, align 4
  %5 = alloca i32, align 4
  store ptr %0, ptr %2, align 8, !tbaa !3
  call void @llvm.lifetime.start.p0(i64 4, ptr %3) #11
  call void @llvm.lifetime.start.p0(i64 4, ptr %4) #11
  call void @llvm.lifetime.start.p0(i64 4, ptr %5) #11
  %6 = call i32 (ptr, ...) @printf(ptr noundef @.str.2)
  store i32 1, ptr %4, align 4, !tbaa !9
  br label %7

7:                                                ; preds = %68, %1
  %8 = load i32, ptr %4, align 4, !tbaa !9
  %9 = load ptr, ptr %2, align 8, !tbaa !3
  %10 = call i32 @Wln_NtkObjNum(ptr noundef %9)
  %11 = icmp slt i32 %8, %10
  br i1 %11, label %12, label %71

12:                                               ; preds = %7
  %13 = load i32, ptr %4, align 4, !tbaa !9
  %14 = call i32 (ptr, ...) @printf(ptr noundef @.str.3, i32 noundef %13)
  store i32 0, ptr %3, align 4, !tbaa !9
  br label %15

15:                                               ; preds = %36, %12
  %16 = load i32, ptr %3, align 4, !tbaa !9
  %17 = load ptr, ptr %2, align 8, !tbaa !3
  %18 = load i32, ptr %4, align 4, !tbaa !9
  %19 = call i32 @Wln_ObjFaninNum(ptr noundef %17, i32 noundef %18)
  %20 = icmp slt i32 %16, %19
  br i1 %20, label %21, label %26

21:                                               ; preds = %15
  %22 = load ptr, ptr %2, align 8, !tbaa !3
  %23 = load i32, ptr %4, align 4, !tbaa !9
  %24 = load i32, ptr %3, align 4, !tbaa !9
  %25 = call i32 @Wln_ObjFanin(ptr noundef %22, i32 noundef %23, i32 noundef %24)
  store i32 %25, ptr %5, align 4, !tbaa !9
  br label %26

26:                                               ; preds = %21, %15
  %27 = phi i1 [ false, %15 ], [ true, %21 ]
  br i1 %27, label %28, label %39

28:                                               ; preds = %26
  %29 = load i32, ptr %5, align 4, !tbaa !9
  %30 = icmp ne i32 %29, 0
  br i1 %30, label %32, label %31

31:                                               ; preds = %28
  br label %35

32:                                               ; preds = %28
  %33 = load i32, ptr %5, align 4, !tbaa !9
  %34 = call i32 (ptr, ...) @printf(ptr noundef @.str.4, i32 noundef %33)
  br label %35

35:                                               ; preds = %32, %31
  br label %36

36:                                               ; preds = %35
  %37 = load i32, ptr %3, align 4, !tbaa !9
  %38 = add nsw i32 %37, 1
  store i32 %38, ptr %3, align 4, !tbaa !9
  br label %15, !llvm.loop !54

39:                                               ; preds = %26
  br label %40

40:                                               ; preds = %45, %39
  %41 = load i32, ptr %3, align 4, !tbaa !9
  %42 = icmp slt i32 %41, 4
  br i1 %42, label %43, label %48

43:                                               ; preds = %40
  %44 = call i32 (ptr, ...) @printf(ptr noundef @.str.5)
  br label %45

45:                                               ; preds = %43
  %46 = load i32, ptr %3, align 4, !tbaa !9
  %47 = add nsw i32 %46, 1
  store i32 %47, ptr %3, align 4, !tbaa !9
  br label %40, !llvm.loop !55

48:                                               ; preds = %40
  %49 = load ptr, ptr %2, align 8, !tbaa !3
  %50 = load i32, ptr %4, align 4, !tbaa !9
  %51 = call i32 @Wln_ObjNameId(ptr noundef %49, i32 noundef %50)
  %52 = call i32 (ptr, ...) @printf(ptr noundef @.str.6, i32 noundef %51)
  %53 = load ptr, ptr %2, align 8, !tbaa !3
  %54 = load i32, ptr %4, align 4, !tbaa !9
  %55 = call i32 @Wln_ObjIsPi(ptr noundef %53, i32 noundef %54)
  %56 = icmp ne i32 %55, 0
  br i1 %56, label %57, label %59

57:                                               ; preds = %48
  %58 = call i32 (ptr, ...) @printf(ptr noundef @.str.7)
  br label %59

59:                                               ; preds = %57, %48
  %60 = load ptr, ptr %2, align 8, !tbaa !3
  %61 = load i32, ptr %4, align 4, !tbaa !9
  %62 = call i32 @Wln_ObjIsPo(ptr noundef %60, i32 noundef %61)
  %63 = icmp ne i32 %62, 0
  br i1 %63, label %64, label %66

64:                                               ; preds = %59
  %65 = call i32 (ptr, ...) @printf(ptr noundef @.str.8)
  br label %66

66:                                               ; preds = %64, %59
  %67 = call i32 (ptr, ...) @printf(ptr noundef @.str.9)
  br label %68

68:                                               ; preds = %66
  %69 = load i32, ptr %4, align 4, !tbaa !9
  %70 = add nsw i32 %69, 1
  store i32 %70, ptr %4, align 4, !tbaa !9
  br label %7, !llvm.loop !56

71:                                               ; preds = %7
  call void @llvm.lifetime.end.p0(i64 4, ptr %5) #11
  call void @llvm.lifetime.end.p0(i64 4, ptr %4) #11
  call void @llvm.lifetime.end.p0(i64 4, ptr %3) #11
  ret void
}