; Function Attrs: nofree nounwind uwtable
define void @Ndr_NtkPrintObjects(ptr noundef readonly captures(none) %0) local_unnamed_addr #8 {
  %puts = tail call i32 @puts(ptr nonnull dereferenceable(1) @str)
  %2 = getelementptr i8, ptr %0, i64 76
  %.val45 = load i32, ptr %2, align 4, !tbaa !16
  %3 = icmp sgt i32 %.val45, 1
  br i1 %3, label %.lr.ph47, label %._crit_edge

.lr.ph47:                                         ; preds = %1
  %4 = getelementptr i8, ptr %0, i64 88
  %5 = getelementptr i8, ptr %0, i64 128
  %6 = getelementptr i8, ptr %0, i64 80
  %7 = getelementptr i8, ptr %0, i64 28
  %8 = getelementptr i8, ptr %0, i64 60
  %9 = getelementptr i8, ptr %0, i64 44
  br label %10

10:                                               ; preds = %.lr.ph47, %Wln_ObjIsPo.exit.thread
  %indvars.iv50 = phi i64 [ 1, %.lr.ph47 ], [ %indvars.iv.next51, %Wln_ObjIsPo.exit.thread ]
  %11 = trunc nuw nsw i64 %indvars.iv50 to i32
  %12 = tail call i32 (ptr, ...) @printf(ptr noundef nonnull dereferenceable(1) @.str.3, i32 noundef %11)
  %.val2439 = load ptr, ptr %4, align 8, !tbaa !36
  %13 = getelementptr inbounds nuw %struct.Wln_Vec_t_, ptr %.val2439, i64 %indvars.iv50, i32 1
  %14 = load i32, ptr %13, align 4, !tbaa !37
  %15 = icmp sgt i32 %14, 0
  br i1 %15, label %.lr.ph, label %.critedge.preheader59

.critedge.preheader:                              ; preds = %29
  %16 = trunc nuw nsw i64 %indvars.iv.next to i32
  %17 = icmp samesign ult i64 %indvars.iv, 3
  br i1 %17, label %.critedge.preheader59, label %.critedge._crit_edge

.critedge.preheader59:                            ; preds = %10, %.critedge.preheader
  %.143.ph = phi i32 [ 0, %10 ], [ %16, %.critedge.preheader ]
  br label %.critedge

.lr.ph:                                           ; preds = %10, %29
  %.val2453 = phi ptr [ %.val24, %29 ], [ %.val2439, %10 ]
  %indvars.iv = phi i64 [ %indvars.iv.next, %29 ], [ 0, %10 ]
  %18 = phi i32 [ %31, %29 ], [ %14, %10 ]
  %19 = icmp sgt i32 %18, 2
  %20 = getelementptr inbounds nuw %struct.Wln_Vec_t_, ptr %.val2453, i64 %indvars.iv50, i32 2
  br i1 %19, label %21, label %24

21:                                               ; preds = %.lr.ph
  %22 = load ptr, ptr %20, align 8, !tbaa !13
  %23 = getelementptr inbounds nuw i32, ptr %22, i64 %indvars.iv
  br label %Wln_ObjFanin.exit

24:                                               ; preds = %.lr.ph
  %25 = getelementptr inbounds nuw [2 x i32], ptr %20, i64 0, i64 %indvars.iv
  br label %Wln_ObjFanin.exit

Wln_ObjFanin.exit:                                ; preds = %21, %24
  %.in.i = phi ptr [ %23, %21 ], [ %25, %24 ]
  %26 = load i32, ptr %.in.i, align 4, !tbaa !13
  %.not23 = icmp eq i32 %26, 0
  br i1 %.not23, label %29, label %27

27:                                               ; preds = %Wln_ObjFanin.exit
  %28 = tail call i32 (ptr, ...) @printf(ptr noundef nonnull dereferenceable(1) @.str.4, i32 noundef %26)
  %.val24.pre = load ptr, ptr %4, align 8, !tbaa !36
  br label %29

29:                                               ; preds = %27, %Wln_ObjFanin.exit
  %.val24 = phi ptr [ %.val24.pre, %27 ], [ %.val2453, %Wln_ObjFanin.exit ]
  %indvars.iv.next = add nuw nsw i64 %indvars.iv, 1
  %30 = getelementptr inbounds nuw %struct.Wln_Vec_t_, ptr %.val24, i64 %indvars.iv50, i32 1
  %31 = load i32, ptr %30, align 4, !tbaa !37
  %32 = sext i32 %31 to i64
  %33 = icmp slt i64 %indvars.iv.next, %32
  br i1 %33, label %.lr.ph, label %.critedge.preheader, !llvm.loop !63

.critedge:                                        ; preds = %.critedge.preheader59, %.critedge
  %.143 = phi i32 [ %35, %.critedge ], [ %.143.ph, %.critedge.preheader59 ]
  %34 = tail call i32 (ptr, ...) @printf(ptr noundef nonnull dereferenceable(1) @.str.5)
  %35 = add nuw i32 %.143, 1
  %exitcond.not = icmp eq i32 %35, 4
  br i1 %exitcond.not, label %.critedge._crit_edge, label %.critedge, !llvm.loop !64

.critedge._crit_edge:                             ; preds = %.critedge, %.critedge.preheader
  %.val26 = load ptr, ptr %5, align 8, !tbaa !18
  %36 = getelementptr inbounds nuw i32, ptr %.val26, i64 %indvars.iv50
  %37 = load i32, ptr %36, align 4, !tbaa !14
  %38 = tail call i32 (ptr, ...) @printf(ptr noundef nonnull dereferenceable(1) @.str.6, i32 noundef %37)
  %.val5.i = load ptr, ptr %6, align 8, !tbaa !18
  %39 = getelementptr inbounds nuw i32, ptr %.val5.i, i64 %indvars.iv50
  %40 = load i32, ptr %39, align 4, !tbaa !14
  %.not.i = icmp eq i32 %40, 3
  br i1 %.not.i, label %41, label %Wln_ObjIsPi.exit.thread

41:                                               ; preds = %.critedge._crit_edge
  %.val6.i = load ptr, ptr %4, align 8, !tbaa !36
  %42 = getelementptr inbounds nuw %struct.Wln_Vec_t_, ptr %.val6.i, i64 %indvars.iv50, i32 1
  %43 = load i32, ptr %42, align 4, !tbaa !37
  %44 = icmp sgt i32 %43, 2
  %45 = getelementptr inbounds nuw %struct.Wln_Vec_t_, ptr %.val6.i, i64 %indvars.iv50, i32 2
  br i1 %44, label %46, label %Wln_ObjIsPi.exit

46:                                               ; preds = %41
  %47 = load ptr, ptr %45, align 8, !tbaa !13
  br label %Wln_ObjIsPi.exit

Wln_ObjIsPi.exit:                                 ; preds = %41, %46
  %.pn.i.i.i = phi ptr [ %47, %46 ], [ %45, %41 ]
  %.in.i.i.i.i = getelementptr inbounds nuw i8, ptr %.pn.i.i.i, i64 4
  %48 = load i32, ptr %.in.i.i.i.i, align 4, !tbaa !13
  %.val.i = load i32, ptr %7, align 4, !tbaa !16
  %.val4.i = load i32, ptr %8, align 4, !tbaa !16
  %49 = sub nsw i32 %.val.i, %.val4.i
  %.not = icmp slt i32 %48, %49
  br i1 %.not, label %50, label %Wln_ObjIsPo.exit.thread

50:                                               ; preds = %Wln_ObjIsPi.exit
  %51 = tail call i32 (ptr, ...) @printf(ptr noundef nonnull dereferenceable(1) @.str.7)
  %.val6.i27.pre = load ptr, ptr %6, align 8, !tbaa !18
  %.phi.trans.insert = getelementptr inbounds nuw i32, ptr %.val6.i27.pre, i64 %indvars.iv50
  %.pre = load i32, ptr %.phi.trans.insert, align 4, !tbaa !14
  br label %Wln_ObjIsPi.exit.thread

Wln_ObjIsPi.exit.thread:                          ; preds = %.critedge._crit_edge, %50
  %52 = phi i32 [ %40, %.critedge._crit_edge ], [ %.pre, %50 ]
  %.not.i28 = icmp eq i32 %52, 4
  br i1 %.not.i28, label %53, label %Wln_ObjIsPo.exit.thread

53:                                               ; preds = %Wln_ObjIsPi.exit.thread
  %.val5.i29 = load ptr, ptr %4, align 8, !tbaa !36
  %54 = getelementptr inbounds nuw %struct.Wln_Vec_t_, ptr %.val5.i29, i64 %indvars.iv50, i32 1
  %55 = load i32, ptr %54, align 4, !tbaa !37
  %56 = icmp sgt i32 %55, 2
  %57 = getelementptr inbounds nuw %struct.Wln_Vec_t_, ptr %.val5.i29, i64 %indvars.iv50, i32 2
  br i1 %56, label %58, label %Wln_ObjIsPo.exit

58:                                               ; preds = %53
  %59 = load ptr, ptr %57, align 8, !tbaa !13
  br label %Wln_ObjIsPo.exit

Wln_ObjIsPo.exit:                                 ; preds = %53, %58
  %.pn.i.i.i31 = phi ptr [ %59, %58 ], [ %57, %53 ]
  %.in.i.i.i.i32 = getelementptr inbounds nuw i8, ptr %.pn.i.i.i31, i64 4
  %60 = load i32, ptr %.in.i.i.i.i32, align 4, !tbaa !13
  %.val.i33 = load i32, ptr %9, align 4, !tbaa !16
  %.val4.i34 = load i32, ptr %8, align 4, !tbaa !16
  %61 = sub nsw i32 %.val.i33, %.val4.i34
  %.not37 = icmp slt i32 %60, %61
  br i1 %.not37, label %62, label %Wln_ObjIsPo.exit.thread

62:                                               ; preds = %Wln_ObjIsPo.exit
  %63 = tail call i32 (ptr, ...) @printf(ptr noundef nonnull dereferenceable(1) @.str.8)
  br label %Wln_ObjIsPo.exit.thread

Wln_ObjIsPo.exit.thread:                          ; preds = %Wln_ObjIsPi.exit, %Wln_ObjIsPi.exit.thread, %62, %Wln_ObjIsPo.exit
  %putchar = tail call i32 @putchar(i32 10)
  %indvars.iv.next51 = add nuw nsw i64 %indvars.iv50, 1
  %.val = load i32, ptr %2, align 4, !tbaa !16
  %64 = sext i32 %.val to i64
  %65 = icmp slt i64 %indvars.iv.next51, %64
  br i1 %65, label %10, label %._crit_edge, !llvm.loop !65

._crit_edge:                                      ; preds = %Wln_ObjIsPo.exit.thread, %1
  ret void
}